Certificate:
    Data:
        Version: 3 (0x2)
        Serial Number: 0 (0x0)
    Signature Algorithm: sha1WithRSAEncryption
        Issuer: O=Tizen Association, OU=Tizen Association, CN=Partner Class Root Authority
        Validity
            Not Before: Jan  1 00:00:00 2012 GMT
            Not After : Jan  1 00:00:00 2032 GMT
        Subject: O=Tizen Association, OU=Tizen Association, CN=Partner Class Root Authority
        Subject Public Key Info:
            Public Key Algorithm: rsaEncryption
                Public-Key: (2048 bit)
                Modulus:
                    00:c7:8a:39:d3:84:4c:e6:af:fa:b0:9a:3e:4a:c9:
                    b0:cd:c0:e1:ae:f7:c4:0d:82:59:7f:2e:c9:38:d1:
                    39:93:8f:1e:86:83:d6:fa:8d:17:dc:75:a7:0e:6b:
                    7b:5d:39:31:28:61:1f:fc:61:d6:7c:ac:cf:13:47:
                    83:8e:8c:86:03:d7:54:05:d4:e2:db:81:56:f7:b1:
                    52:ce:af:2e:c9:ba:a1:c8:e6:79:21:f9:5a:cf:d2:
                    f7:a4:91:fa:42:59:a6:94:14:73:60:26:9b:d6:d9:
                    a6:2f:4c:a4:c8:89:c1:87:e9:ca:39:8b:bc:02:6d:
                    48:95:ee:8b:de:bd:31:11:bb:0a:c7:74:96:94:6a:
                    18:b3:70:2c:b2:7c:49:32:54:3c:b5:3b:c6:37:61:
                    a2:5a:23:2f:a2:ad:16:a9:78:03:f8:99:c1:ac:c9:
                    3a:35:26:af:c1:20:bd:ab:bc:98:8c:c2:24:30:de:
                    90:4f:10:f5:10:94:09:17:a4:c3:52:c5:ad:15:37:
                    85:6d:23:a6:3b:03:ad:ea:f5:06:37:4e:27:b5:ab:
                    61:d3:17:72:71:f9:69:cc:98:3b:6c:63:b4:b7:12:
                    c5:ac:aa:36:38:b9:b9:44:ce:2c:1d:87:dc:9c:54:
                    61:34:4e:d1:3d:12:c7:33:f1:0f:c7:b0:fa:72:79:
                    9a:bf
                Exponent: 65537 (0x10001)
        X509v3 extensions:
            X509v3 Basic Constraints: 
                CA:TRUE
    Signature Algorithm: sha1WithRSAEncryption
         2f:14:d0:26:9d:12:e2:f6:55:e7:3e:97:ab:48:93:92:f5:99:
         54:24:c3:2a:eb:0d:04:8f:fc:c3:a1:dd:be:0b:95:2b:44:75:
         ad:fe:a6:a0:d1:6c:2d:93:22:b5:8b:ff:97:23:43:7e:9e:e2:
         c9:e5:5a:52:a9:0e:22:f5:f4:66:4b:ba:d5:3d:b6:d4:08:52:
         e0:d6:d4:5d:8f:cf:07:5d:7d:7e:42:a9:99:8d:0a:a9:29:88:
         ec:93:c4:28:55:4d:c5:be:a1:18:6e:2e:e4:63:54:b1:e3:f9:
         c5:be:43:4a:34:a9:6e:9f:26:77:79:80:e7:86:aa:26:74:af:
         6b:c5:d9:73:5d:27:c6:c7:72:7e:9c:0b:5a:4f:be:d5:4f:df:
         c8:ed:cc:18:5d:59:6e:83:b7:a3:b1:bd:35:0c:6c:71:da:3a:
         9c:1b:a5:f7:65:d0:83:7c:49:1d:e2:69:84:83:23:5d:f3:4e:
         d6:99:86:7a:5b:f3:c7:80:5b:2a:58:9c:70:3e:49:69:5a:8e:
         5a:4c:c4:35:db:57:20:06:85:c3:26:fa:4f:32:96:27:8d:5e:
         7b:20:18:94:e8:9f:0a:e0:1e:b4:91:9a:a8:9a:46:33:b0:9b:
         da:35:d6:39:66:67:3c:41:0d:4e:97:a6:87:f8:49:a1:e9:0f:
         d7:e1:02:a3
-----BEGIN CERTIFICATE-----
MIIDSTCCAjGgAwIBAgIBADANBgkqhkiG9w0BAQUFADBfMRowGAYDVQQKDBFUaXpl
biBBc3NvY2lhdGlvbjEaMBgGA1UECwwRVGl6ZW4gQXNzb2NpYXRpb24xJTAjBgNV
BAMMHFBhcnRuZXIgQ2xhc3MgUm9vdCBBdXRob3JpdHkwHhcNMTIwMTAxMDAwMDAw
WhcNMzIwMTAxMDAwMDAwWjBfMRowGAYDVQQKDBFUaXplbiBBc3NvY2lhdGlvbjEa
MBgGA1UECwwRVGl6ZW4gQXNzb2NpYXRpb24xJTAjBgNVBAMMHFBhcnRuZXIgQ2xh
c3MgUm9vdCBBdXRob3JpdHkwggEiMA0GCSqGSIb3DQEBAQUAA4IBDwAwggEKAoIB
AQDHijnThEzmr/qwmj5KybDNwOGu98QNgll/Lsk40TmTjx6Gg9b6jRfcdacOa3td
OTEoYR/8YdZ8rM8TR4OOjIYD11QF1OLbgVb3sVLOry7JuqHI5nkh+VrP0vekkfpC
WaaUFHNgJpvW2aYvTKTIicGH6co5i7wCbUiV7ovevTERuwrHdJaUahizcCyyfEky
VDy1O8Y3YaJaIy+irRapeAP4mcGsyTo1Jq/BIL2rvJiMwiQw3pBPEPUQlAkXpMNS
xa0VN4VtI6Y7A63q9QY3Tie1q2HTF3Jx+WnMmDtsY7S3EsWsqjY4ublEziwdh9yc
VGE0TtE9Escz8Q/HsPpyeZq/AgMBAAGjEDAOMAwGA1UdEwQFMAMBAf8wDQYJKoZI
hvcNAQEFBQADggEBAC8U0CadEuL2Vec+l6tIk5L1mVQkwyrrDQSP/MOh3b4LlStE
da3+pqDRbC2TIrWL/5cjQ36e4snlWlKpDiL19GZLutU9ttQIUuDW1F2PzwddfX5C
qZmNCqkpiOyTxChVTcW+oRhuLuRjVLHj+cW+Q0o0qW6fJnd5gOeGqiZ0r2vF2XNd
J8bHcn6cC1pPvtVP38jtzBhdWW6Dt6OxvTUMbHHaOpwbpfdl0IN8SR3iaYSDI13z
TtaZhnpb88eAWypYnHA+SWlajlpMxDXbVyAGhcMm+k8ylieNXnsgGJTonwrgHrSR
mqiaRjOwm9o11jlmZzxBDU6Xpof4SaHpD9fhAqM=
-----END CERTIFICATE-----
