Certificate:
    Data:
        Version: 3 (0x2)
        Serial Number: 0 (0x0)
    Signature Algorithm: sha1WithRSAEncryption
        Issuer: O=Tizen Association, OU=Tizen Association, CN=Platform Class Root Authority
        Validity
            Not Before: Jan  1 00:00:00 2012 GMT
            Not After : Jan  1 00:00:00 2032 GMT
        Subject: O=Tizen Association, OU=Tizen Association, CN=Platform Class Root Authority
        Subject Public Key Info:
            Public Key Algorithm: rsaEncryption
                Public-Key: (2048 bit)
                Modulus:
                    00:c1:d0:ff:3d:24:dd:d7:6f:2b:ec:1b:3d:1a:2a:
                    38:55:cb:b0:ef:df:50:36:e6:47:51:c9:a4:ce:7d:
                    64:74:6c:66:e9:84:68:2f:bb:69:02:37:36:f2:9c:
                    9c:00:39:2c:8d:63:e2:d0:cd:ee:e1:80:85:46:83:
                    03:a3:29:d8:f1:9f:47:39:67:bd:60:6b:63:99:40:
                    bb:ad:58:e2:05:e5:0b:79:c5:98:d1:9f:03:c3:72:
                    5d:f1:c8:94:41:e5:5b:4c:4e:eb:7c:e9:60:bd:22:
                    e0:b4:13:b8:ed:ef:dc:9d:88:26:9c:6d:28:14:ad:
                    43:4c:e7:7c:4b:9c:8d:a0:a1:c2:1d:69:30:29:6d:
                    3b:bc:05:4c:e8:f2:6d:62:d1:34:cb:96:47:f1:9e:
                    f6:05:f8:b1:9a:a9:ba:9a:9a:35:6f:4f:14:7d:1b:
                    1e:96:c1:36:9b:e3:ca:9c:fd:81:63:0a:ba:b6:14:
                    9c:b9:0a:52:2e:62:83:f0:91:45:f8:aa:fc:64:42:
                    c0:22:da:f7:a1:11:17:33:db:ae:92:31:79:30:4b:
                    86:d9:6c:78:58:ec:c8:fc:9e:fe:bf:82:2b:3c:0a:
                    12:f6:40:8f:c7:91:83:8e:76:c8:0e:11:26:6c:ac:
                    97:fd:72:d0:b9:14:d8:5b:24:4a:ba:24:65:9f:0f:
                    53:55
                Exponent: 65537 (0x10001)
        X509v3 extensions:
            X509v3 Basic Constraints: 
                CA:TRUE
    Signature Algorithm: sha1WithRSAEncryption
         98:17:fe:51:4d:f4:18:d9:37:1a:7d:dc:af:04:16:17:e4:0b:
         cf:62:5f:36:7c:47:41:35:ac:cf:4f:8d:e8:b3:6b:55:a4:bc:
         a2:0d:8f:fd:10:5f:0f:15:4b:df:64:88:f7:b1:2a:64:95:86:
         3b:a0:d0:79:42:65:22:2b:34:9a:4c:0c:a9:25:1e:3d:58:38:
         83:0b:0c:6c:f1:6a:6d:9a:8d:a3:d7:d3:2d:5c:40:1a:c4:2e:
         59:09:a6:7d:21:81:9f:00:8f:bd:e9:36:51:d4:8f:a0:a6:38:
         af:60:13:94:71:41:33:cb:e4:30:83:f3:1c:3d:f7:cf:8f:ad:
         be:0c:3b:9f:e7:de:e8:4a:f2:ff:d5:52:3c:50:27:0e:f5:2b:
         7a:d7:3a:d8:1a:15:ee:6d:e9:13:98:86:fc:07:20:a6:95:f0:
         9f:c6:66:21:05:5e:fa:43:ca:af:95:6e:eb:30:d3:a0:26:c5:
         2f:95:75:19:b4:ca:ff:71:39:60:c4:2d:ce:5c:0c:3c:a7:02:
         28:ce:cb:e6:1c:90:6e:ee:94:94:64:d5:8d:19:c3:3f:fd:7c:
         30:f6:c0:43:ff:f8:4c:fc:d2:9f:db:02:63:ab:2d:78:3f:ea:
         46:e2:4f:f6:8a:e5:57:43:02:20:3e:1f:2f:38:3e:3b:6a:de:
         d5:26:db:7e
-----BEGIN CERTIFICATE-----
MIIDSzCCAjOgAwIBAgIBADANBgkqhkiG9w0BAQUFADBgMRowGAYDVQQKDBFUaXpl
biBBc3NvY2lhdGlvbjEaMBgGA1UECwwRVGl6ZW4gQXNzb2NpYXRpb24xJjAkBgNV
BAMMHVBsYXRmb3JtIENsYXNzIFJvb3QgQXV0aG9yaXR5MB4XDTEyMDEwMTAwMDAw
MFoXDTMyMDEwMTAwMDAwMFowYDEaMBgGA1UECgwRVGl6ZW4gQXNzb2NpYXRpb24x
GjAYBgNVBAsMEVRpemVuIEFzc29jaWF0aW9uMSYwJAYDVQQDDB1QbGF0Zm9ybSBD
bGFzcyBSb290IEF1dGhvcml0eTCCASIwDQYJKoZIhvcNAQEBBQADggEPADCCAQoC
ggEBAMHQ/z0k3ddvK+wbPRoqOFXLsO/fUDbmR1HJpM59ZHRsZumEaC+7aQI3NvKc
nAA5LI1j4tDN7uGAhUaDA6Mp2PGfRzlnvWBrY5lAu61Y4gXlC3nFmNGfA8NyXfHI
lEHlW0xO63zpYL0i4LQTuO3v3J2IJpxtKBStQ0znfEucjaChwh1pMCltO7wFTOjy
bWLRNMuWR/Ge9gX4sZqpupqaNW9PFH0bHpbBNpvjypz9gWMKurYUnLkKUi5ig/CR
Rfiq/GRCwCLa96ERFzPbrpIxeTBLhtlseFjsyPye/r+CKzwKEvZAj8eRg452yA4R
Jmysl/1y0LkU2FskSrokZZ8PU1UCAwEAAaMQMA4wDAYDVR0TBAUwAwEB/zANBgkq
hkiG9w0BAQUFAAOCAQEAmBf+UU30GNk3Gn3crwQWF+QLz2JfNnxHQTWsz0+N6LNr
VaS8og2P/RBfDxVL32SI97EqZJWGO6DQeUJlIis0mkwMqSUePVg4gwsMbPFqbZqN
o9fTLVxAGsQuWQmmfSGBnwCPvek2UdSPoKY4r2ATlHFBM8vkMIPzHD33z4+tvgw7
n+fe6Ery/9VSPFAnDvUretc62BoV7m3pE5iG/AcgppXwn8ZmIQVe+kPKr5Vu6zDT
oCbFL5V1GbTK/3E5YMQtzlwMPKcCKM7L5hyQbu6UlGTVjRnDP/18MPbAQ//4TPzS
n9sCY6steD/qRuJP9orlV0MCID4fLzg+O2re1Sbbfg==
-----END CERTIFICATE-----
