Certificate:
    Data:
        Version: 3 (0x2)
        Serial Number: 0 (0x0)
    Signature Algorithm: sha1WithRSAEncryption
        Issuer: O=Tizen Association, OU=Tizen Association, CN=Public Class Root Authority
        Validity
            Not Before: Jan  1 00:00:00 2012 GMT
            Not After : Jan  1 00:00:00 2032 GMT
        Subject: O=Tizen Association, OU=Tizen Association, CN=Public Class Root Authority
        Subject Public Key Info:
            Public Key Algorithm: rsaEncryption
                Public-Key: (2048 bit)
                Modulus:
                    00:dd:32:9f:e2:a2:7b:82:2a:35:9a:95:8b:1e:3d:
                    9e:9b:87:c0:8a:53:4c:38:b4:a6:88:b4:eb:6f:47:
                    17:44:b9:fd:83:aa:95:c3:1c:75:c2:86:33:53:1d:
                    43:e7:15:2c:15:dc:b1:5c:e4:cc:0a:69:49:94:dd:
                    6b:da:f0:a7:7d:f0:80:87:44:e0:56:0f:8a:bc:e2:
                    56:7d:b6:7b:69:0a:c2:09:b7:a4:3e:43:9b:a5:c8:
                    fd:39:c2:e0:2d:64:2b:bd:be:28:c3:05:74:11:84:
                    59:d2:ca:52:c9:3d:7d:e8:42:8a:3f:59:4b:70:f2:
                    b8:b3:1e:b2:c6:7a:3d:d4:59:b7:f6:27:6b:e2:55:
                    8d:18:87:35:47:9c:4d:4f:74:e2:0f:95:db:9c:58:
                    da:b4:a8:81:1c:2c:dc:ac:19:dd:97:76:df:6e:75:
                    db:5d:ed:86:ec:43:d1:f7:93:58:34:3f:c6:03:38:
                    c6:42:ec:ab:4f:0c:d0:51:be:d6:eb:33:75:e5:e9:
                    aa:51:b2:8f:92:51:66:44:2f:7c:cb:a6:36:59:a0:
                    ed:16:36:a4:d7:ed:5e:f3:c9:a9:df:32:53:ea:e8:
                    42:16:51:a5:0c:d7:5b:ae:58:e7:3c:d7:d6:d3:d8:
                    44:69:00:36:a9:e7:95:12:9f:34:8e:e6:f8:0e:9a:
                    c6:4b
                Exponent: 65537 (0x10001)
        X509v3 extensions:
            X509v3 Basic Constraints: 
                CA:TRUE
    Signature Algorithm: sha1WithRSAEncryption
         b3:77:50:dd:52:4d:a8:a1:ef:bc:f2:15:c9:2c:47:e7:47:d0:
         f7:79:28:9a:de:08:f0:bd:90:c7:c4:69:0a:3c:25:a6:e0:4c:
         8c:85:c0:95:fc:a8:96:fb:8a:69:28:f8:a0:5e:f5:b6:f6:2d:
         e0:e7:96:30:a2:6c:47:a8:1a:38:9f:e3:ed:d6:c6:2d:78:56:
         51:9e:91:68:05:77:af:76:3d:19:0f:e2:b2:15:ac:9f:ca:c0:
         9a:e9:29:0c:19:41:24:95:d0:80:40:3d:2c:3a:c6:20:cf:ff:
         5d:15:6c:52:ce:e9:8b:f3:66:ab:75:07:01:92:51:f8:d4:65:
         ce:0e:c6:31:fc:fe:72:de:a0:80:fa:88:cc:9f:44:ed:85:f5:
         11:43:62:5f:41:8d:8a:0a:b5:81:85:2a:21:68:e9:eb:87:c7:
         96:39:54:23:6b:ef:64:e4:99:0f:70:1a:e2:a6:5a:90:08:93:
         ad:47:48:0d:26:43:68:f7:e5:c5:f7:00:72:44:5c:c7:99:06:
         c6:71:4a:23:04:8a:ea:f0:80:b8:2f:8c:9d:16:da:92:2c:79:
         90:8a:ce:a9:48:81:9d:b6:94:df:64:46:c9:c4:5d:c6:8f:9d:
         79:be:6c:b6:4d:ee:e8:5a:8b:76:bf:51:32:5a:bd:a6:46:7c:
         aa:4b:c7:22
-----BEGIN CERTIFICATE-----
MIIDRzCCAi+gAwIBAgIBADANBgkqhkiG9w0BAQUFADBeMRowGAYDVQQKDBFUaXpl
biBBc3NvY2lhdGlvbjEaMBgGA1UECwwRVGl6ZW4gQXNzb2NpYXRpb24xJDAiBgNV
BAMMG1B1YmxpYyBDbGFzcyBSb290IEF1dGhvcml0eTAeFw0xMjAxMDEwMDAwMDBa
Fw0zMjAxMDEwMDAwMDBaMF4xGjAYBgNVBAoMEVRpemVuIEFzc29jaWF0aW9uMRow
GAYDVQQLDBFUaXplbiBBc3NvY2lhdGlvbjEkMCIGA1UEAwwbUHVibGljIENsYXNz
IFJvb3QgQXV0aG9yaXR5MIIBIjANBgkqhkiG9w0BAQEFAAOCAQ8AMIIBCgKCAQEA
3TKf4qJ7gio1mpWLHj2em4fAilNMOLSmiLTrb0cXRLn9g6qVwxx1woYzUx1D5xUs
FdyxXOTMCmlJlN1r2vCnffCAh0TgVg+KvOJWfbZ7aQrCCbekPkObpcj9OcLgLWQr
vb4owwV0EYRZ0spSyT196EKKP1lLcPK4sx6yxno91Fm39idr4lWNGIc1R5xNT3Ti
D5XbnFjatKiBHCzcrBndl3bfbnXbXe2G7EPR95NYND/GAzjGQuyrTwzQUb7W6zN1
5emqUbKPklFmRC98y6Y2WaDtFjak1+1e88mp3zJT6uhCFlGlDNdbrljnPNfW09hE
aQA2qeeVEp80jub4DprGSwIDAQABoxAwDjAMBgNVHRMEBTADAQH/MA0GCSqGSIb3
DQEBBQUAA4IBAQCzd1DdUk2ooe+88hXJLEfnR9D3eSia3gjwvZDHxGkKPCWm4EyM
hcCV/KiW+4ppKPigXvW29i3g55YwomxHqBo4n+Pt1sYteFZRnpFoBXevdj0ZD+Ky
FayfysCa6SkMGUEkldCAQD0sOsYgz/9dFWxSzumL82ardQcBklH41GXODsYx/P5y
3qCA+ojMn0TthfURQ2JfQY2KCrWBhSohaOnrh8eWOVQja+9k5JkPcBriplqQCJOt
R0gNJkNo9+XF9wByRFzHmQbGcUojBIrq8IC4L4ydFtqSLHmQis6pSIGdtpTfZEbJ
xF3Gj515vmy2Te7oWot2v1EyWr2mRnyqS8ci
-----END CERTIFICATE-----
